target datalayout = "e-m:e-p270:32:32-p271:32:32-p272:64:64-i64:64-i128:128-f80:128-n8:16:32:64-S128"
target triple = "x86_64-pc-linux-gnu"

%struct.SurfaceDataRasInfo = type { %struct.SurfaceDataBounds, ptr, i32, i32, i32, i32, ptr, ptr, ptr, ptr, ptr, ptr, i32, %union.anon.0 }
%struct.SurfaceDataBounds = type { i32, i32, i32, i32 }
%union.anon.0 = type { ptr, [56 x i8] }

; Function Attrs: nounwind uwtable
define hidden i32 @PixelForIndex12Gray(ptr noundef %0, i32 noundef %1) #0 {
  %3 = alloca ptr, align 8
  %4 = alloca i32, align 4
  %5 = alloca i32, align 4
  %6 = alloca i32, align 4
  %7 = alloca i32, align 4
  %8 = alloca i32, align 4
  store ptr %0, ptr %3, align 8
  store i32 %1, ptr %4, align 4
  br label %9

9:                                                ; preds = %2
  %10 = load i32, ptr %4, align 4
  %11 = and i32 %10, 255
  store i32 %11, ptr %7, align 4
  %12 = load i32, ptr %4, align 4
  %13 = ashr i32 %12, 8
  %14 = and i32 %13, 255
  store i32 %14, ptr %6, align 4
  %15 = load i32, ptr %4, align 4
  %16 = ashr i32 %15, 16
  %17 = and i32 %16, 255
  store i32 %17, ptr %5, align 4
  br label %18

18:                                               ; preds = %9
  %19 = load i32, ptr %5, align 4
  %20 = mul nsw i32 77, %19
  %21 = load i32, ptr %6, align 4
  %22 = mul nsw i32 150, %21
  %23 = add nsw i32 %20, %22
  %24 = load i32, ptr %7, align 4
  %25 = mul nsw i32 29, %24
  %26 = add nsw i32 %23, %25
  %27 = add nsw i32 %26, 128
  %28 = sdiv i32 %27, 256
  %29 = trunc i32 %28 to i8
  %30 = zext i8 %29 to i32
  store i32 %30, ptr %8, align 4
  %31 = load ptr, ptr %3, align 8
  %32 = getelementptr inbounds %struct.SurfaceDataRasInfo, ptr %31, i32 0, i32 11
  %33 = load ptr, ptr %32, align 8
  %34 = load i32, ptr %8, align 4
  %35 = sext i32 %34 to i64
  %36 = getelementptr inbounds i32, ptr %33, i64 %35
  %37 = load i32, ptr %36, align 4
  ret i32 %37
}